target datalayout = "e-m:e-p270:32:32-p271:32:32-p272:64:64-i64:64-i128:128-f80:128-n8:16:32:64-S128"
target triple = "x86_64-pc-linux-gnu"

%struct.Min_Cube_t_ = type { ptr, i32, [1 x i32] }
%struct.Min_Man_t_ = type { i32, i32, ptr, ptr, ptr, [2 x ptr], [2 x ptr], ptr, ptr, i32, ptr }

@.str = private unnamed_addr constant [2 x i8] c"-\00", align 1
@.str.1 = private unnamed_addr constant [2 x i8] c"0\00", align 1
@.str.2 = private unnamed_addr constant [2 x i8] c"1\00", align 1
@.str.3 = private unnamed_addr constant [2 x i8] c"?\00", align 1
@.str.4 = private unnamed_addr constant [4 x i8] c" 1\0A\00", align 1
@.str.5 = private unnamed_addr constant [2 x i8] c"\0A\00", align 1
@.str.6 = private unnamed_addr constant [7 x i8] c"%2d : \00", align 1
@.str.7 = private unnamed_addr constant [8 x i8] c"Bubble\0A\00", align 1

; Function Attrs: inlinehint nounwind uwtable
define internal i32 @Min_CubeHasBit(ptr noundef %0, i32 noundef %1) #2 {
  %3 = alloca ptr, align 8
  %4 = alloca i32, align 4
  store ptr %0, ptr %3, align 8, !tbaa !8
  store i32 %1, ptr %4, align 4, !tbaa !11
  %5 = load ptr, ptr %3, align 8, !tbaa !8
  %6 = getelementptr inbounds nuw %struct.Min_Cube_t_, ptr %5, i32 0, i32 2
  %7 = load i32, ptr %4, align 4, !tbaa !11
  %8 = ashr i32 %7, 5
  %9 = sext i32 %8 to i64
  %10 = getelementptr inbounds [1 x i32], ptr %6, i64 0, i64 %9
  %11 = load i32, ptr %10, align 4, !tbaa !11
  %12 = load i32, ptr %4, align 4, !tbaa !11
  %13 = and i32 %12, 31
  %14 = shl i32 1, %13
  %15 = and i32 %11, %14
  %16 = icmp ugt i32 %15, 0
  %17 = zext i1 %16 to i32
  ret i32 %17
}

; Function Attrs: nounwind uwtable
define void @Min_CubeWrite(ptr noundef %0, ptr noundef %1) #0 {
  %3 = alloca ptr, align 8
  %4 = alloca ptr, align 8
  %5 = alloca i32, align 4
  store ptr %0, ptr %3, align 8, !tbaa !23
  store ptr %1, ptr %4, align 8, !tbaa !8
  call void @llvm.lifetime.start.p0(i64 4, ptr %5) #8
  store i32 0, ptr %5, align 4, !tbaa !11
  br label %6

6:                                                ; preds = %48, %2
  %7 = load i32, ptr %5, align 4, !tbaa !11
  %8 = load ptr, ptr %4, align 8, !tbaa !8
  %9 = getelementptr inbounds nuw %struct.Min_Cube_t_, ptr %8, i32 0, i32 1
  %10 = load i32, ptr %9, align 8
  %11 = and i32 %10, 1023
  %12 = icmp slt i32 %7, %11
  br i1 %12, label %13, label %51

13:                                               ; preds = %6
  %14 = load ptr, ptr %4, align 8, !tbaa !8
  %15 = load i32, ptr %5, align 4, !tbaa !11
  %16 = mul nsw i32 %15, 2
  %17 = call i32 @Min_CubeHasBit(ptr noundef %14, i32 noundef %16)
  %18 = icmp ne i32 %17, 0
  br i1 %18, label %19, label %33

19:                                               ; preds = %13
  %20 = load ptr, ptr %4, align 8, !tbaa !8
  %21 = load i32, ptr %5, align 4, !tbaa !11
  %22 = mul nsw i32 %21, 2
  %23 = add nsw i32 %22, 1
  %24 = call i32 @Min_CubeHasBit(ptr noundef %20, i32 noundef %23)
  %25 = icmp ne i32 %24, 0
  br i1 %25, label %26, label %29

26:                                               ; preds = %19
  %27 = load ptr, ptr %3, align 8, !tbaa !23
  %28 = call i32 (ptr, ptr, ...) @fprintf(ptr noundef %27, ptr noundef @.str) #8
  br label %32

29:                                               ; preds = %19
  %30 = load ptr, ptr %3, align 8, !tbaa !23
  %31 = call i32 (ptr, ptr, ...) @fprintf(ptr noundef %30, ptr noundef @.str.1) #8
  br label %32

32:                                               ; preds = %29, %26
  br label %47

33:                                               ; preds = %13
  %34 = load ptr, ptr %4, align 8, !tbaa !8
  %35 = load i32, ptr %5, align 4, !tbaa !11
  %36 = mul nsw i32 %35, 2
  %37 = add nsw i32 %36, 1
  %38 = call i32 @Min_CubeHasBit(ptr noundef %34, i32 noundef %37)
  %39 = icmp ne i32 %38, 0
  br i1 %39, label %40, label %43

40:                                               ; preds = %33
  %41 = load ptr, ptr %3, align 8, !tbaa !23
  %42 = call i32 (ptr, ptr, ...) @fprintf(ptr noundef %41, ptr noundef @.str.2) #8
  br label %46

43:                                               ; preds = %33
  %44 = load ptr, ptr %3, align 8, !tbaa !23
  %45 = call i32 (ptr, ptr, ...) @fprintf(ptr noundef %44, ptr noundef @.str.3) #8
  br label %46

46:                                               ; preds = %43, %40
  br label %47

47:                                               ; preds = %46, %32
  br label %48

48:                                               ; preds = %47
  %49 = load i32, ptr %5, align 4, !tbaa !11
  %50 = add nsw i32 %49, 1
  store i32 %50, ptr %5, align 4, !tbaa !11
  br label %6, !llvm.loop !25

51:                                               ; preds = %6
  %52 = load ptr, ptr %3, align 8, !tbaa !23
  %53 = call i32 (ptr, ptr, ...) @fprintf(ptr noundef %52, ptr noundef @.str.4) #8
  call void @llvm.lifetime.end.p0(i64 4, ptr %5) #8
  ret void
}

; Function Attrs: nounwind uwtable
define void @Min_CoverWriteStore(ptr noundef %0, ptr noundef %1) #0 {
  %3 = alloca ptr, align 8
  %4 = alloca ptr, align 8
  %5 = alloca ptr, align 8
  %6 = alloca i32, align 4
  store ptr %0, ptr %3, align 8, !tbaa !23
  store ptr %1, ptr %4, align 8, !tbaa !27
  call void @llvm.lifetime.start.p0(i64 8, ptr %5) #8
  call void @llvm.lifetime.start.p0(i64 4, ptr %6) #8
  store i32 0, ptr %6, align 4, !tbaa !11
  br label %7

7:                                                ; preds = %42, %2
  %8 = load i32, ptr %6, align 4, !tbaa !11
  %9 = load ptr, ptr %4, align 8, !tbaa !27
  %10 = getelementptr inbounds nuw %struct.Min_Man_t_, ptr %9, i32 0, i32 0
  %11 = load i32, ptr %10, align 8, !tbaa !29
  %12 = icmp sle i32 %8, %11
  br i1 %12, label %13, label %45

13:                                               ; preds = %7
  %14 = load ptr, ptr %4, align 8, !tbaa !27
  %15 = getelementptr inbounds nuw %struct.Min_Man_t_, ptr %14, i32 0, i32 10
  %16 = load ptr, ptr %15, align 8, !tbaa !33
  %17 = load i32, ptr %6, align 4, !tbaa !11
  %18 = sext i32 %17 to i64
  %19 = getelementptr inbounds ptr, ptr %16, i64 %18
  %20 = load ptr, ptr %19, align 8, !tbaa !8
  store ptr %20, ptr %5, align 8, !tbaa !8
  br label %21

21:                                               ; preds = %37, %13
  %22 = load ptr, ptr %5, align 8, !tbaa !8
  %23 = icmp ne ptr %22, null
  br i1 %23, label %24, label %41

24:                                               ; preds = %21
  %25 = load i32, ptr %6, align 4, !tbaa !11
  %26 = call i32 (ptr, ...) @printf(ptr noundef @.str.6, i32 noundef %25)
  %27 = load ptr, ptr %5, align 8, !tbaa !8
  %28 = load ptr, ptr %4, align 8, !tbaa !27
  %29 = getelementptr inbounds nuw %struct.Min_Man_t_, ptr %28, i32 0, i32 8
  %30 = load ptr, ptr %29, align 8, !tbaa !34
  %31 = icmp eq ptr %27, %30
  br i1 %31, label %32, label %34

32:                                               ; preds = %24
  %33 = call i32 (ptr, ...) @printf(ptr noundef @.str.7)
  br label %37

34:                                               ; preds = %24
  %35 = load ptr, ptr %3, align 8, !tbaa !23
  %36 = load ptr, ptr %5, align 8, !tbaa !8
  call void @Min_CubeWrite(ptr noundef %35, ptr noundef %36)
  br label %37

37:                                               ; preds = %34, %32
  %38 = load ptr, ptr %5, align 8, !tbaa !8
  %39 = getelementptr inbounds nuw %struct.Min_Cube_t_, ptr %38, i32 0, i32 0
  %40 = load ptr, ptr %39, align 8, !tbaa !20
  store ptr %40, ptr %5, align 8, !tbaa !8
  br label %21, !llvm.loop !35

41:                                               ; preds = %21
  br label %42

42:                                               ; preds = %41
  %43 = load i32, ptr %6, align 4, !tbaa !11
  %44 = add nsw i32 %43, 1
  store i32 %44, ptr %6, align 4, !tbaa !11
  br label %7, !llvm.loop !36

45:                                               ; preds = %7
  %46 = call i32 (ptr, ...) @printf(ptr noundef @.str.5)
  call void @llvm.lifetime.end.p0(i64 4, ptr %6) #8
  call void @llvm.lifetime.end.p0(i64 8, ptr %5) #8
  ret void
}