; Function Attrs: nofree nounwind uwtable
define void @Min_CoverWriteStore(ptr noundef captures(none) %0, ptr noundef readonly captures(none) %1) local_unnamed_addr #2 {
  %3 = load i32, ptr %1, align 8, !tbaa !22
  %.not16 = icmp slt i32 %3, 0
  br i1 %.not16, label %._crit_edge20, label %.lr.ph19

.lr.ph19:                                         ; preds = %2
  %4 = getelementptr inbounds nuw i8, ptr %1, i64 88
  %5 = getelementptr inbounds nuw i8, ptr %1, i64 72
  br label %6

6:                                                ; preds = %.lr.ph19, %._crit_edge
  %7 = phi i32 [ %3, %.lr.ph19 ], [ %37, %._crit_edge ]
  %indvars.iv = phi i64 [ 0, %.lr.ph19 ], [ %indvars.iv.next, %._crit_edge ]
  %8 = load ptr, ptr %4, align 8, !tbaa !26
  %9 = getelementptr inbounds nuw ptr, ptr %8, i64 %indvars.iv
  %.01113 = load ptr, ptr %9, align 8, !tbaa !27
  %.not1214 = icmp eq ptr %.01113, null
  br i1 %.not1214, label %._crit_edge, label %.lr.ph.preheader

.lr.ph.preheader:                                 ; preds = %6
  %10 = trunc nuw nsw i64 %indvars.iv to i32
  br label %.lr.ph

.lr.ph:                                           ; preds = %.lr.ph.preheader, %36
  %.01115 = phi ptr [ %.011, %36 ], [ %.01113, %.lr.ph.preheader ]
  %11 = tail call i32 (ptr, ...) @printf(ptr noundef nonnull dereferenceable(1) @.str.6, i32 noundef %10)
  %12 = load ptr, ptr %5, align 8, !tbaa !28
  %13 = icmp eq ptr %.01115, %12
  br i1 %13, label %14, label %15

14:                                               ; preds = %.lr.ph
  %puts = tail call i32 @puts(ptr nonnull dereferenceable(1) @str)
  br label %36

15:                                               ; preds = %.lr.ph
  %16 = getelementptr inbounds nuw i8, ptr %.01115, i64 8
  %17 = load i32, ptr %16, align 8
  %18 = and i32 %17, 1023
  %.not19.i = icmp eq i32 %18, 0
  br i1 %.not19.i, label %Min_CubeWrite.exit, label %.lr.ph.i

.lr.ph.i:                                         ; preds = %15
  %19 = getelementptr inbounds nuw i8, ptr %.01115, i64 12
  br label %20

20:                                               ; preds = %20, %.lr.ph.i
  %.018.i = phi i32 [ 0, %.lr.ph.i ], [ %31, %20 ]
  %21 = shl nuw nsw i32 %.018.i, 1
  %22 = lshr i32 %.018.i, 4
  %23 = zext nneg i32 %22 to i64
  %24 = getelementptr inbounds nuw [1 x i32], ptr %19, i64 0, i64 %23
  %25 = load i32, ptr %24, align 4, !tbaa !3
  %26 = and i32 %21, 30
  %27 = shl nuw nsw i32 1, %26
  %28 = and i32 %27, %25
  %.not.i = icmp eq i32 %28, 0
  %29 = shl nuw i32 2, %26
  %30 = and i32 %29, %25
  %.not13.i = icmp eq i32 %30, 0
  %..i = select i1 %.not13.i, i32 48, i32 45
  %.20.i = select i1 %.not13.i, i32 63, i32 49
  %.sink.i = select i1 %.not.i, i32 %.20.i, i32 %..i
  %fputc16.i = tail call i32 @fputc(i32 %.sink.i, ptr %0)
  %31 = add nuw nsw i32 %.018.i, 1
  %32 = load i32, ptr %16, align 8
  %33 = and i32 %32, 1023
  %34 = icmp samesign ult i32 %31, %33
  br i1 %34, label %20, label %Min_CubeWrite.exit, !llvm.loop !20

Min_CubeWrite.exit:                               ; preds = %20, %15
  %35 = tail call i64 @fwrite(ptr nonnull @.str.4, i64 3, i64 1, ptr %0)
  br label %36

36:                                               ; preds = %Min_CubeWrite.exit, %14
  %.011 = load ptr, ptr %.01115, align 8, !tbaa !27
  %.not12 = icmp eq ptr %.011, null
  br i1 %.not12, label %._crit_edge.loopexit, label %.lr.ph, !llvm.loop !29

._crit_edge.loopexit:                             ; preds = %36
  %.pre = load i32, ptr %1, align 8, !tbaa !22
  br label %._crit_edge

._crit_edge:                                      ; preds = %._crit_edge.loopexit, %6
  %37 = phi i32 [ %.pre, %._crit_edge.loopexit ], [ %7, %6 ]
  %indvars.iv.next = add nuw nsw i64 %indvars.iv, 1
  %38 = sext i32 %37 to i64
  %.not.not = icmp slt i64 %indvars.iv, %38
  br i1 %.not.not, label %6, label %._crit_edge20, !llvm.loop !30

._crit_edge20:                                    ; preds = %._crit_edge, %2
  %putchar = tail call i32 @putchar(i32 10)
  ret void
}